; Function Attrs: nounwind uwtable
define noalias nonnull ptr @l_Lake_Toml_chAtom(i32 noundef %0, ptr noundef %1, ptr noundef %2) local_unnamed_addr #1 {
  tail call void @lean_inc_heartbeat() #4
  %4 = tail call noalias ptr @mi_malloc_small(i64 noundef 40) #4
  %5 = icmp eq ptr %4, null
  br i1 %5, label %6, label %lean_alloc_closure.exit

6:                                                ; preds = %3
  tail call void @lean_internal_panic_out_of_memory() #5
  unreachable

lean_alloc_closure.exit:                          ; preds = %3
  %7 = zext i32 %0 to i64
  %8 = shl nuw nsw i64 %7, 1
  %9 = or disjoint i64 %8, 1
  %10 = inttoptr i64 %9 to ptr
  %11 = getelementptr inbounds nuw i8, ptr %4, i64 4
  store i32 1, ptr %4, align 4, !tbaa !4
  store i32 -184549336, ptr %11, align 4
  %12 = getelementptr inbounds nuw i8, ptr %4, i64 8
  store ptr @l_Lake_Toml_chFn___boxed, ptr %12, align 8, !tbaa !10
  %13 = getelementptr inbounds nuw i8, ptr %4, i64 16
  store i16 4, ptr %13, align 8, !tbaa !12
  %14 = getelementptr inbounds nuw i8, ptr %4, i64 18
  store i16 2, ptr %14, align 2, !tbaa !12
  %15 = getelementptr inbounds nuw i8, ptr %4, i64 24
  store ptr %10, ptr %15, align 8, !tbaa !10
  %16 = getelementptr inbounds nuw i8, ptr %4, i64 32
  store ptr %1, ptr %16, align 8, !tbaa !10
  tail call void @lean_inc_heartbeat() #4
  %17 = tail call noalias ptr @mi_malloc_small(i64 noundef 40) #4
  %18 = icmp eq ptr %17, null
  br i1 %18, label %19, label %lean_alloc_closure.exit.i

19:                                               ; preds = %lean_alloc_closure.exit
  tail call void @lean_internal_panic_out_of_memory() #5
  unreachable

lean_alloc_closure.exit.i:                        ; preds = %lean_alloc_closure.exit
  %20 = getelementptr inbounds nuw i8, ptr %17, i64 4
  store i32 1, ptr %17, align 4, !tbaa !4
  store i32 -184549336, ptr %20, align 4
  %21 = getelementptr inbounds nuw i8, ptr %17, i64 8
  store ptr @l_Lake_Toml_atom___elambda__1, ptr %21, align 8, !tbaa !10
  %22 = getelementptr inbounds nuw i8, ptr %17, i64 16
  store i16 4, ptr %22, align 8, !tbaa !12
  %23 = getelementptr inbounds nuw i8, ptr %17, i64 18
  store i16 2, ptr %23, align 2, !tbaa !12
  %24 = getelementptr inbounds nuw i8, ptr %17, i64 24
  store ptr %4, ptr %24, align 8, !tbaa !10
  %25 = getelementptr inbounds nuw i8, ptr %17, i64 32
  store ptr %2, ptr %25, align 8, !tbaa !10
  %26 = load ptr, ptr @l_Lake_Toml_atom___closed__2, align 8, !tbaa !10
  tail call void @lean_inc_heartbeat() #4
  %27 = tail call noalias ptr @mi_malloc_small(i64 noundef 24) #4
  %28 = icmp eq ptr %27, null
  br i1 %28, label %29, label %l_Lake_Toml_atom.exit

29:                                               ; preds = %lean_alloc_closure.exit.i
  tail call void @lean_internal_panic_out_of_memory() #5
  unreachable

l_Lake_Toml_atom.exit:                            ; preds = %lean_alloc_closure.exit.i
  %30 = getelementptr inbounds nuw i8, ptr %27, i64 4
  store i32 1, ptr %27, align 4, !tbaa !4
  store i32 131096, ptr %30, align 4
  %31 = getelementptr inbounds nuw i8, ptr %27, i64 8
  store ptr %26, ptr %31, align 8, !tbaa !10
  %32 = getelementptr inbounds nuw i8, ptr %27, i64 16
  store ptr %17, ptr %32, align 8, !tbaa !10
  ret ptr %27
}